cnumpy.core.multiarray
_reconstruct
p0
(cnumpy
ndarray
p1
(I0
tp2
S'b'
p3
tp4
Rp5
(I1
(I4
tp6
cnumpy
dtype
p7
(S'f8'
p8
I0
I1
tp9
Rp10
(I3
S'<'
p11
NNNI-1
I-1
I0
tp12
bI00
S'\x8e\x87\xb8\\\x08\x03\xcc?"5\x9e\xeb\xf4.\xd1?\\tr\xaa\x9f\t\xd2?\x9dB=\x84\x89k\xd1?'
p13
tp14
b.