cnumpy.core.multiarray
_reconstruct
p0
(cnumpy
ndarray
p1
(I0
tp2
S'b'
p3
tp4
Rp5
(I1
(I4
tp6
cnumpy
dtype
p7
(S'f8'
p8
I0
I1
tp9
Rp10
(I3
S'<'
p11
NNNI-1
I-1
I0
tp12
bI00
S'\xfc\x140$N\x0b\xc1?\x0cp48ZU\xb1?\xac\xc33\xe1\xa5\xbf\xce?\xc1@\xa3\x8fRp\xcd?'
p13
tp14
b.